target datalayout = "e-m:e-p270:32:32-p271:32:32-p272:64:64-i64:64-i128:128-f80:128-n8:16:32:64-S128"
target triple = "x86_64-pc-linux-gnu"

%"struct.llvm::detail::PunnedPointer.5" = type { [8 x i8] }
%"class.clang::SourceLocation" = type { i32 }
%"class.clang::QualType" = type { %"class.llvm::PointerIntPair.6" }
%"class.llvm::PointerIntPair.6" = type { %"struct.llvm::detail::PunnedPointer.7" }
%"struct.llvm::detail::PunnedPointer.7" = type { [8 x i8] }
%"class.clang::ValueDecl" = type { %"class.clang::NamedDecl", %"class.clang::QualType" }
%"class.clang::NamedDecl" = type { %"class.clang::Decl.base", %"class.clang::DeclarationName" }
%"class.clang::Decl.base" = type <{ ptr, %"class.llvm::PointerIntPair", %"class.llvm::PointerUnion", %"class.clang::SourceLocation", i32, i8 }>
%"class.llvm::PointerIntPair" = type { %"struct.llvm::detail::PunnedPointer" }
%"struct.llvm::detail::PunnedPointer" = type { [8 x i8] }
%"class.llvm::PointerUnion" = type { %"class.llvm::pointer_union_detail::PointerUnionMembers" }
%"class.llvm::pointer_union_detail::PointerUnionMembers" = type { %"class.llvm::pointer_union_detail::PointerUnionMembers.2" }
%"class.llvm::pointer_union_detail::PointerUnionMembers.2" = type { %"class.llvm::pointer_union_detail::PointerUnionMembers.3" }
%"class.llvm::pointer_union_detail::PointerUnionMembers.3" = type { %"class.llvm::PointerIntPair.4" }
%"class.llvm::PointerIntPair.4" = type { %"struct.llvm::detail::PunnedPointer.5" }
%"class.clang::DeclarationName" = type { i64 }
%"class.clang::DeclaratorDecl.base" = type <{ %"class.clang::ValueDecl", %"class.llvm::PointerUnion.8", %"class.clang::SourceLocation" }>
%"class.llvm::PointerUnion.8" = type { %"class.llvm::pointer_union_detail::PointerUnionMembers.9" }
%"class.llvm::pointer_union_detail::PointerUnionMembers.9" = type { %"class.llvm::pointer_union_detail::PointerUnionMembers.10" }
%"class.llvm::pointer_union_detail::PointerUnionMembers.10" = type { %"class.llvm::pointer_union_detail::PointerUnionMembers.11" }
%"class.llvm::pointer_union_detail::PointerUnionMembers.11" = type { %"class.llvm::PointerIntPair.12" }
%"class.llvm::PointerIntPair.12" = type { %"struct.llvm::detail::PunnedPointer.5" }
%"class.llvm::PointerUnion.395" = type { %"class.llvm::pointer_union_detail::PointerUnionMembers.396" }
%"class.llvm::pointer_union_detail::PointerUnionMembers.396" = type { %"class.llvm::pointer_union_detail::PointerUnionMembers.397" }
%"class.llvm::pointer_union_detail::PointerUnionMembers.397" = type { %"class.llvm::pointer_union_detail::PointerUnionMembers.398" }
%"class.llvm::pointer_union_detail::PointerUnionMembers.398" = type { %"class.llvm::PointerIntPair.399" }
%"class.llvm::PointerIntPair.399" = type { %"struct.llvm::detail::PunnedPointer.5" }
%"class.llvm::FoldingSetBase::Node" = type { ptr }
%"class.llvm::PointerUnion.470" = type { %"class.llvm::pointer_union_detail::PointerUnionMembers.471" }
%"class.llvm::pointer_union_detail::PointerUnionMembers.471" = type { %"class.llvm::pointer_union_detail::PointerUnionMembers.472" }
%"class.llvm::pointer_union_detail::PointerUnionMembers.472" = type { %"class.llvm::pointer_union_detail::PointerUnionMembers.473" }
%"class.llvm::pointer_union_detail::PointerUnionMembers.473" = type { %"class.llvm::PointerIntPair.474" }
%"class.llvm::PointerIntPair.474" = type { %"struct.llvm::detail::PunnedPointer.5" }
%"class.clang::VarDecl.base" = type <{ %"class.clang::DeclaratorDecl.base", [4 x i8], %"class.clang::Redeclarable.550", %"class.llvm::PointerUnion.551", %union.anon.556 }>
%"class.clang::Redeclarable.550" = type { %"class.clang::Redeclarable<clang::VarDecl>::DeclLink", ptr }
%"class.clang::Redeclarable<clang::VarDecl>::DeclLink" = type { %"class.llvm::PointerUnion.395" }
%"class.llvm::PointerUnion.551" = type { %"class.llvm::pointer_union_detail::PointerUnionMembers.552" }
%"class.llvm::pointer_union_detail::PointerUnionMembers.552" = type { %"class.llvm::pointer_union_detail::PointerUnionMembers.553" }
%"class.llvm::pointer_union_detail::PointerUnionMembers.553" = type { %"class.llvm::pointer_union_detail::PointerUnionMembers.554" }
%"class.llvm::pointer_union_detail::PointerUnionMembers.554" = type { %"class.llvm::PointerIntPair.555" }
%"class.llvm::PointerIntPair.555" = type { %"struct.llvm::detail::PunnedPointer.5" }
%union.anon.556 = type { i32 }
%"class.llvm::PointerUnion.573" = type { %"class.llvm::pointer_union_detail::PointerUnionMembers.574" }
%"class.llvm::pointer_union_detail::PointerUnionMembers.574" = type { %"class.llvm::pointer_union_detail::PointerUnionMembers.575" }
%"class.llvm::pointer_union_detail::PointerUnionMembers.575" = type { %"class.llvm::pointer_union_detail::PointerUnionMembers.576" }
%"class.llvm::pointer_union_detail::PointerUnionMembers.576" = type { %"class.llvm::PointerIntPair.577" }
%"class.llvm::PointerIntPair.577" = type { %"struct.llvm::detail::PunnedPointer.5" }
%"class.clang::VarTemplateSpecializationDecl" = type <{ %"class.clang::VarDecl.base", [4 x i8], %"class.llvm::FoldingSetBase::Node", %"class.llvm::PointerUnion.573", %"class.llvm::PointerUnion.470", ptr, %"class.clang::SourceLocation", i8, [3 x i8] }>

; Function Attrs: mustprogress nounwind uwtable
define linkonce_odr hidden noundef nonnull align 8 dereferenceable(8) ptr @_ZN4llvm6detail13PunnedPointerIPvEaSEl(ptr noundef nonnull align 8 dereferenceable(8) %0, i64 noundef %1) #0 comdat align 2 {
  %3 = alloca ptr, align 8
  %4 = alloca i64, align 8
  store ptr %0, ptr %3, align 8
  store i64 %1, ptr %4, align 8
  %5 = load ptr, ptr %3, align 8
  %6 = getelementptr inbounds nuw %"struct.llvm::detail::PunnedPointer.5", ptr %5, i32 0, i32 0
  %7 = getelementptr inbounds [8 x i8], ptr %6, i64 0, i64 0
  call void @llvm.memcpy.p0.p0.i64(ptr align 8 %7, ptr align 8 %4, i64 8, i1 false)
  ret ptr %5
}

; Function Attrs: mustprogress nounwind uwtable
define linkonce_odr hidden void @_ZN4llvm14PointerIntPairIPvLj1EiNS_20pointer_union_detail22PointerUnionUIntTraitsIJPKN5clang27ASTTemplateArgumentListInfoEPNS4_25ExplicitInstantiationInfoEEEENS_18PointerIntPairInfoIS1_Lj1ESA_EEEC2Ev(ptr noundef nonnull align 8 dereferenceable(8) %0) unnamed_addr #0 comdat align 2 {
  %2 = alloca ptr, align 8
  store ptr %0, ptr %2, align 8
  %3 = load ptr, ptr %2, align 8
  %4 = getelementptr inbounds nuw %"class.llvm::PointerIntPair.474", ptr %3, i32 0, i32 0
  call void @_ZN4llvm6detail13PunnedPointerIPvEC2El(ptr noundef nonnull align 8 dereferenceable(8) %4, i64 noundef 0)
  ret void
}

; Function Attrs: mustprogress nounwind uwtable
define linkonce_odr hidden void @_ZN4llvm6detail13PunnedPointerIPvEC2El(ptr noundef nonnull align 8 dereferenceable(8) %0, i64 noundef %1) unnamed_addr #0 comdat align 2 {
  %3 = alloca ptr, align 8
  %4 = alloca i64, align 8
  store ptr %0, ptr %3, align 8
  store i64 %1, ptr %4, align 8
  %5 = load ptr, ptr %3, align 8
  %6 = load i64, ptr %4, align 8
  %7 = call noundef nonnull align 8 dereferenceable(8) ptr @_ZN4llvm6detail13PunnedPointerIPvEaSEl(ptr noundef nonnull align 8 dereferenceable(8) %5, i64 noundef %6)
  ret void
}

; Function Attrs: mustprogress nounwind uwtable
define linkonce_odr hidden void @_ZN4llvm20pointer_union_detail19PointerUnionMembersINS_12PointerUnionIJPKN5clang27ASTTemplateArgumentListInfoEPNS3_25ExplicitInstantiationInfoEEEENS_14PointerIntPairIPvLj1EiNS0_22PointerUnionUIntTraitsIJS6_S8_EEENS_18PointerIntPairInfoISB_Lj1ESD_EEEELi2EJEEC2Ev(ptr noundef nonnull align 8 dereferenceable(8) %0) unnamed_addr #0 comdat align 2 {
  %2 = alloca ptr, align 8
  store ptr %0, ptr %2, align 8
  %3 = load ptr, ptr %2, align 8
  %4 = getelementptr inbounds nuw %"class.llvm::pointer_union_detail::PointerUnionMembers.473", ptr %3, i32 0, i32 0
  call void @_ZN4llvm14PointerIntPairIPvLj1EiNS_20pointer_union_detail22PointerUnionUIntTraitsIJPKN5clang27ASTTemplateArgumentListInfoEPNS4_25ExplicitInstantiationInfoEEEENS_18PointerIntPairInfoIS1_Lj1ESA_EEEC2Ev(ptr noundef nonnull align 8 dereferenceable(8) %4)
  ret void
}

; Function Attrs: mustprogress nounwind uwtable
define linkonce_odr hidden void @_ZN4llvm14PointerIntPairIPvLj1EiNS_20pointer_union_detail22PointerUnionUIntTraitsIJPN5clang15VarTemplateDeclEPNS4_29VarTemplateSpecializationDecl32SpecializedPartialSpecializationEEEENS_18PointerIntPairInfoIS1_Lj1ESA_EEEC2Ev(ptr noundef nonnull align 8 dereferenceable(8) %0) unnamed_addr #0 comdat align 2 {
  %2 = alloca ptr, align 8
  store ptr %0, ptr %2, align 8
  %3 = load ptr, ptr %2, align 8
  %4 = getelementptr inbounds nuw %"class.llvm::PointerIntPair.577", ptr %3, i32 0, i32 0
  call void @_ZN4llvm6detail13PunnedPointerIPvEC2El(ptr noundef nonnull align 8 dereferenceable(8) %4, i64 noundef 0)
  ret void
}

; Function Attrs: mustprogress nounwind uwtable
define linkonce_odr hidden void @_ZN4llvm20pointer_union_detail19PointerUnionMembersINS_12PointerUnionIJPKN5clang27ASTTemplateArgumentListInfoEPNS3_25ExplicitInstantiationInfoEEEENS_14PointerIntPairIPvLj1EiNS0_22PointerUnionUIntTraitsIJS6_S8_EEENS_18PointerIntPairInfoISB_Lj1ESD_EEEELi1EJS8_EEC2Ev(ptr noundef nonnull align 8 dereferenceable(8) %0) unnamed_addr #0 comdat align 2 {
  %2 = alloca ptr, align 8
  store ptr %0, ptr %2, align 8
  %3 = load ptr, ptr %2, align 8
  call void @_ZN4llvm20pointer_union_detail19PointerUnionMembersINS_12PointerUnionIJPKN5clang27ASTTemplateArgumentListInfoEPNS3_25ExplicitInstantiationInfoEEEENS_14PointerIntPairIPvLj1EiNS0_22PointerUnionUIntTraitsIJS6_S8_EEENS_18PointerIntPairInfoISB_Lj1ESD_EEEELi2EJEEC2Ev(ptr noundef nonnull align 8 dereferenceable(8) %3)
  ret void
}

; Function Attrs: mustprogress nounwind uwtable
define linkonce_odr hidden void @_ZN4llvm20pointer_union_detail19PointerUnionMembersINS_12PointerUnionIJPN5clang15VarTemplateDeclEPNS3_29VarTemplateSpecializationDecl32SpecializedPartialSpecializationEEEENS_14PointerIntPairIPvLj1EiNS0_22PointerUnionUIntTraitsIJS5_S8_EEENS_18PointerIntPairInfoISB_Lj1ESD_EEEELi2EJEEC2Ev(ptr noundef nonnull align 8 dereferenceable(8) %0) unnamed_addr #0 comdat align 2 {
  %2 = alloca ptr, align 8
  store ptr %0, ptr %2, align 8
  %3 = load ptr, ptr %2, align 8
  %4 = getelementptr inbounds nuw %"class.llvm::pointer_union_detail::PointerUnionMembers.576", ptr %3, i32 0, i32 0
  call void @_ZN4llvm14PointerIntPairIPvLj1EiNS_20pointer_union_detail22PointerUnionUIntTraitsIJPN5clang15VarTemplateDeclEPNS4_29VarTemplateSpecializationDecl32SpecializedPartialSpecializationEEEENS_18PointerIntPairInfoIS1_Lj1ESA_EEEC2Ev(ptr noundef nonnull align 8 dereferenceable(8) %4)
  ret void
}

; Function Attrs: mustprogress nounwind uwtable
define linkonce_odr hidden noundef nonnull align 8 dereferenceable(8) ptr @_ZN4llvm6detail13PunnedPointerINS_12PointerUnionIJPKN5clang4TypeEPKNS3_8ExtQualsEEEEEaSEl(ptr noundef nonnull align 8 dereferenceable(8) %0, i64 noundef %1) #0 comdat align 2 {
  %3 = alloca ptr, align 8
  %4 = alloca i64, align 8
  store ptr %0, ptr %3, align 8
  store i64 %1, ptr %4, align 8
  %5 = load ptr, ptr %3, align 8
  %6 = getelementptr inbounds nuw %"struct.llvm::detail::PunnedPointer.7", ptr %5, i32 0, i32 0
  %7 = getelementptr inbounds [8 x i8], ptr %6, i64 0, i64 0
  call void @llvm.memcpy.p0.p0.i64(ptr align 8 %7, ptr align 8 %4, i64 8, i1 false)
  ret ptr %5
}

; Function Attrs: mustprogress nounwind uwtable
define linkonce_odr hidden void @_ZN4llvm20pointer_union_detail19PointerUnionMembersINS_12PointerUnionIJPKN5clang27ASTTemplateArgumentListInfoEPNS3_25ExplicitInstantiationInfoEEEENS_14PointerIntPairIPvLj1EiNS0_22PointerUnionUIntTraitsIJS6_S8_EEENS_18PointerIntPairInfoISB_Lj1ESD_EEEELi0EJS6_S8_EEC2Ev(ptr noundef nonnull align 8 dereferenceable(8) %0) unnamed_addr #0 comdat align 2 {
  %2 = alloca ptr, align 8
  store ptr %0, ptr %2, align 8
  %3 = load ptr, ptr %2, align 8
  call void @_ZN4llvm20pointer_union_detail19PointerUnionMembersINS_12PointerUnionIJPKN5clang27ASTTemplateArgumentListInfoEPNS3_25ExplicitInstantiationInfoEEEENS_14PointerIntPairIPvLj1EiNS0_22PointerUnionUIntTraitsIJS6_S8_EEENS_18PointerIntPairInfoISB_Lj1ESD_EEEELi1EJS8_EEC2Ev(ptr noundef nonnull align 8 dereferenceable(8) %3)
  ret void
}

; Function Attrs: mustprogress nounwind uwtable
define linkonce_odr hidden void @_ZN4llvm20pointer_union_detail19PointerUnionMembersINS_12PointerUnionIJPN5clang15VarTemplateDeclEPNS3_29VarTemplateSpecializationDecl32SpecializedPartialSpecializationEEEENS_14PointerIntPairIPvLj1EiNS0_22PointerUnionUIntTraitsIJS5_S8_EEENS_18PointerIntPairInfoISB_Lj1ESD_EEEELi1EJS8_EEC2Ev(ptr noundef nonnull align 8 dereferenceable(8) %0) unnamed_addr #0 comdat align 2 {
  %2 = alloca ptr, align 8
  store ptr %0, ptr %2, align 8
  %3 = load ptr, ptr %2, align 8
  call void @_ZN4llvm20pointer_union_detail19PointerUnionMembersINS_12PointerUnionIJPN5clang15VarTemplateDeclEPNS3_29VarTemplateSpecializationDecl32SpecializedPartialSpecializationEEEENS_14PointerIntPairIPvLj1EiNS0_22PointerUnionUIntTraitsIJS5_S8_EEENS_18PointerIntPairInfoISB_Lj1ESD_EEEELi2EJEEC2Ev(ptr noundef nonnull align 8 dereferenceable(8) %3)
  ret void
}

; Function Attrs: mustprogress nounwind uwtable
define linkonce_odr hidden void @_ZN4llvm6detail13PunnedPointerINS_12PointerUnionIJPKN5clang4TypeEPKNS3_8ExtQualsEEEEEC2El(ptr noundef nonnull align 8 dereferenceable(8) %0, i64 noundef %1) unnamed_addr #0 comdat align 2 {
  %3 = alloca ptr, align 8
  %4 = alloca i64, align 8
  store ptr %0, ptr %3, align 8
  store i64 %1, ptr %4, align 8
  %5 = load ptr, ptr %3, align 8
  %6 = load i64, ptr %4, align 8
  %7 = call noundef nonnull align 8 dereferenceable(8) ptr @_ZN4llvm6detail13PunnedPointerINS_12PointerUnionIJPKN5clang4TypeEPKNS3_8ExtQualsEEEEEaSEl(ptr noundef nonnull align 8 dereferenceable(8) %5, i64 noundef %6)
  ret void
}

; Function Attrs: mustprogress nounwind uwtable
define linkonce_odr hidden void @_ZN4llvm12PointerUnionIJPKN5clang27ASTTemplateArgumentListInfoEPNS1_25ExplicitInstantiationInfoEEEC2Ev(ptr noundef nonnull align 8 dereferenceable(8) %0) unnamed_addr #0 comdat align 2 {
  %2 = alloca ptr, align 8
  store ptr %0, ptr %2, align 8
  %3 = load ptr, ptr %2, align 8
  call void @_ZN4llvm20pointer_union_detail19PointerUnionMembersINS_12PointerUnionIJPKN5clang27ASTTemplateArgumentListInfoEPNS3_25ExplicitInstantiationInfoEEEENS_14PointerIntPairIPvLj1EiNS0_22PointerUnionUIntTraitsIJS6_S8_EEENS_18PointerIntPairInfoISB_Lj1ESD_EEEELi0EJS6_S8_EEC2Ev(ptr noundef nonnull align 8 dereferenceable(8) %3)
  ret void
}

; Function Attrs: mustprogress nounwind uwtable
define linkonce_odr hidden void @_ZN4llvm20pointer_union_detail19PointerUnionMembersINS_12PointerUnionIJPN5clang15VarTemplateDeclEPNS3_29VarTemplateSpecializationDecl32SpecializedPartialSpecializationEEEENS_14PointerIntPairIPvLj1EiNS0_22PointerUnionUIntTraitsIJS5_S8_EEENS_18PointerIntPairInfoISB_Lj1ESD_EEEELi0EJS5_S8_EEC2Ev(ptr noundef nonnull align 8 dereferenceable(8) %0) unnamed_addr #0 comdat align 2 {
  %2 = alloca ptr, align 8
  store ptr %0, ptr %2, align 8
  %3 = load ptr, ptr %2, align 8
  call void @_ZN4llvm20pointer_union_detail19PointerUnionMembersINS_12PointerUnionIJPN5clang15VarTemplateDeclEPNS3_29VarTemplateSpecializationDecl32SpecializedPartialSpecializationEEEENS_14PointerIntPairIPvLj1EiNS0_22PointerUnionUIntTraitsIJS5_S8_EEENS_18PointerIntPairInfoISB_Lj1ESD_EEEELi1EJS8_EEC2Ev(ptr noundef nonnull align 8 dereferenceable(8) %3)
  ret void
}

; Function Attrs: mustprogress nounwind uwtable
define linkonce_odr hidden void @_ZN4llvm14PointerIntPairINS_12PointerUnionIJPKN5clang4TypeEPKNS2_8ExtQualsEEEELj3EjNS_21PointerLikeTypeTraitsIS9_EENS_18PointerIntPairInfoIS9_Lj3ESB_EEEC2Ev(ptr noundef nonnull align 8 dereferenceable(8) %0) unnamed_addr #0 comdat align 2 {
  %2 = alloca ptr, align 8
  store ptr %0, ptr %2, align 8
  %3 = load ptr, ptr %2, align 8
  %4 = getelementptr inbounds nuw %"class.llvm::PointerIntPair.6", ptr %3, i32 0, i32 0
  call void @_ZN4llvm6detail13PunnedPointerINS_12PointerUnionIJPKN5clang4TypeEPKNS3_8ExtQualsEEEEEC2El(ptr noundef nonnull align 8 dereferenceable(8) %4, i64 noundef 0)
  ret void
}

; Function Attrs: mustprogress nounwind uwtable
define linkonce_odr hidden void @_ZN4llvm12PointerUnionIJPKN5clang27ASTTemplateArgumentListInfoEPNS1_25ExplicitInstantiationInfoEEEC2EDn(ptr noundef nonnull align 8 dereferenceable(8) %0, ptr %1) unnamed_addr #0 comdat align 2 {
  %3 = alloca ptr, align 8
  %4 = alloca ptr, align 8
  store ptr %0, ptr %3, align 8
  store ptr %1, ptr %4, align 8
  %5 = load ptr, ptr %3, align 8
  call void @llvm.memset.p0.i64(ptr align 8 %5, i8 0, i64 8, i1 false)
  call void @_ZN4llvm12PointerUnionIJPKN5clang27ASTTemplateArgumentListInfoEPNS1_25ExplicitInstantiationInfoEEEC2Ev(ptr noundef nonnull align 8 dereferenceable(8) %5)
  ret void
}

; Function Attrs: mustprogress nounwind uwtable
define linkonce_odr hidden void @_ZN4llvm12PointerUnionIJPN5clang15VarTemplateDeclEPNS1_29VarTemplateSpecializationDecl32SpecializedPartialSpecializationEEEC2Ev(ptr noundef nonnull align 8 dereferenceable(8) %0) unnamed_addr #0 comdat align 2 {
  %2 = alloca ptr, align 8
  store ptr %0, ptr %2, align 8
  %3 = load ptr, ptr %2, align 8
  call void @_ZN4llvm20pointer_union_detail19PointerUnionMembersINS_12PointerUnionIJPN5clang15VarTemplateDeclEPNS3_29VarTemplateSpecializationDecl32SpecializedPartialSpecializationEEEENS_14PointerIntPairIPvLj1EiNS0_22PointerUnionUIntTraitsIJS5_S8_EEENS_18PointerIntPairInfoISB_Lj1ESD_EEEELi0EJS5_S8_EEC2Ev(ptr noundef nonnull align 8 dereferenceable(8) %3)
  ret void
}

; Function Attrs: mustprogress nounwind uwtable
define linkonce_odr hidden void @_ZN4llvm14FoldingSetBase4NodeC2Ev(ptr noundef nonnull align 8 dereferenceable(8) %0) unnamed_addr #0 comdat align 2 {
  %2 = alloca ptr, align 8
  store ptr %0, ptr %2, align 8
  %3 = load ptr, ptr %2, align 8
  %4 = getelementptr inbounds nuw %"class.llvm::FoldingSetBase::Node", ptr %3, i32 0, i32 0
  store ptr null, ptr %4, align 8
  ret void
}

; Function Attrs: mustprogress nounwind uwtable
define linkonce_odr hidden void @_ZN5clang8QualTypeC2Ev(ptr noundef nonnull align 8 dereferenceable(8) %0) unnamed_addr #0 comdat align 2 {
  %2 = alloca ptr, align 8
  store ptr %0, ptr %2, align 8
  %3 = load ptr, ptr %2, align 8
  %4 = getelementptr inbounds nuw %"class.clang::QualType", ptr %3, i32 0, i32 0
  call void @_ZN4llvm14PointerIntPairINS_12PointerUnionIJPKN5clang4TypeEPKNS2_8ExtQualsEEEELj3EjNS_21PointerLikeTypeTraitsIS9_EENS_18PointerIntPairInfoIS9_Lj3ESB_EEEC2Ev(ptr noundef nonnull align 8 dereferenceable(8) %4)
  ret void
}

; Function Attrs: mustprogress nounwind uwtable
define linkonce_odr hidden void @_ZN5clang14SourceLocationC2Ev(ptr noundef nonnull align 4 dereferenceable(4) %0) unnamed_addr #0 comdat align 2 {
  %2 = alloca ptr, align 8
  store ptr %0, ptr %2, align 8
  %3 = load ptr, ptr %2, align 8
  %4 = getelementptr inbounds nuw %"class.clang::SourceLocation", ptr %3, i32 0, i32 0
  store i32 0, ptr %4, align 4
  ret void
}

; Function Attrs: mustprogress nounwind uwtable
define dso_local void @_ZN5clang29VarTemplateSpecializationDeclC2ENS_4Decl4KindERNS_10ASTContextE(ptr noundef nonnull align 8 dereferenceable(141) %0, i32 noundef %1, ptr noundef nonnull align 8 dereferenceable(23096) %2) unnamed_addr #0 align 2 {
  %4 = alloca ptr, align 8
  %5 = alloca i32, align 4
  %6 = alloca ptr, align 8
  %7 = alloca %"class.clang::SourceLocation", align 4
  %8 = alloca %"class.clang::SourceLocation", align 4
  %9 = alloca %"class.clang::QualType", align 8
  store ptr %0, ptr %4, align 8
  store i32 %1, ptr %5, align 4
  store ptr %2, ptr %6, align 8
  %10 = load ptr, ptr %4, align 8
  %11 = load i32, ptr %5, align 4
  %12 = load ptr, ptr %6, align 8
  call void @llvm.memset.p0.i64(ptr align 4 %7, i8 0, i64 4, i1 false)
  call void @_ZN5clang14SourceLocationC2Ev(ptr noundef nonnull align 4 dereferenceable(4) %7) #7
  call void @llvm.memset.p0.i64(ptr align 4 %8, i8 0, i64 4, i1 false)
  call void @_ZN5clang14SourceLocationC2Ev(ptr noundef nonnull align 4 dereferenceable(4) %8) #7
  call void @llvm.memset.p0.i64(ptr align 8 %9, i8 0, i64 8, i1 false)
  call void @_ZN5clang8QualTypeC2Ev(ptr noundef nonnull align 8 dereferenceable(8) %9)
  %13 = getelementptr inbounds nuw %"class.clang::SourceLocation", ptr %7, i32 0, i32 0
  %14 = load i32, ptr %13, align 4
  %15 = getelementptr inbounds nuw %"class.clang::SourceLocation", ptr %8, i32 0, i32 0
  %16 = load i32, ptr %15, align 4
  %17 = getelementptr inbounds nuw %"class.clang::QualType", ptr %9, i32 0, i32 0
  %18 = getelementptr inbounds nuw %"class.llvm::PointerIntPair.6", ptr %17, i32 0, i32 0
  %19 = getelementptr inbounds nuw %"struct.llvm::detail::PunnedPointer.7", ptr %18, i32 0, i32 0
  %20 = load i64, ptr %19, align 8
  call void @_ZN5clang7VarDeclC2ENS_4Decl4KindERNS_10ASTContextEPNS_11DeclContextENS_14SourceLocationES7_PKNS_14IdentifierInfoENS_8QualTypeEPNS_14TypeSourceInfoENS_12StorageClassE(ptr noundef nonnull align 8 dereferenceable(100) %10, i32 noundef %11, ptr noundef nonnull align 8 dereferenceable(23096) %12, ptr noundef null, i32 %14, i32 %16, ptr noundef null, i64 %20, ptr noundef null, i32 noundef 0)
  %21 = getelementptr inbounds i8, ptr %10, i64 104
  call void @_ZN4llvm14FoldingSetBase4NodeC2Ev(ptr noundef nonnull align 8 dereferenceable(8) %21) #7
  store ptr getelementptr inbounds inrange(-16, 104) ({ [15 x ptr] }, ptr @_ZTVN5clang29VarTemplateSpecializationDeclE, i32 0, i32 0, i32 2), ptr %10, align 8
  %22 = getelementptr inbounds nuw %"class.clang::VarTemplateSpecializationDecl", ptr %10, i32 0, i32 3
  call void @_ZN4llvm12PointerUnionIJPN5clang15VarTemplateDeclEPNS1_29VarTemplateSpecializationDecl32SpecializedPartialSpecializationEEEC2Ev(ptr noundef nonnull align 8 dereferenceable(8) %22)
  %23 = getelementptr inbounds nuw %"class.clang::VarTemplateSpecializationDecl", ptr %10, i32 0, i32 4
  call void @_ZN4llvm12PointerUnionIJPKN5clang27ASTTemplateArgumentListInfoEPNS1_25ExplicitInstantiationInfoEEEC2EDn(ptr noundef nonnull align 8 dereferenceable(8) %23, ptr null)
  %24 = getelementptr inbounds nuw %"class.clang::VarTemplateSpecializationDecl", ptr %10, i32 0, i32 6
  call void @_ZN5clang14SourceLocationC2Ev(ptr noundef nonnull align 4 dereferenceable(4) %24) #7
  %25 = getelementptr inbounds nuw %"class.clang::VarTemplateSpecializationDecl", ptr %10, i32 0, i32 7
  %26 = load i8, ptr %25, align 4
  %27 = and i8 %26, -8
  %28 = or i8 %27, 0
  store i8 %28, ptr %25, align 4
  %29 = getelementptr inbounds nuw %"class.clang::VarTemplateSpecializationDecl", ptr %10, i32 0, i32 7
  %30 = load i8, ptr %29, align 4
  %31 = and i8 %30, -9
  %32 = or i8 %31, 0
  store i8 %32, ptr %29, align 4
  ret void
}