; Function Attrs: mustprogress nounwind uwtable
define dso_local void @_ZN5clang29VarTemplateSpecializationDeclC2ENS_4Decl4KindERNS_10ASTContextE(ptr noundef nonnull align 8 dereferenceable(141) %0, i32 noundef %1, ptr noundef nonnull align 8 dereferenceable(23096) %2) unnamed_addr #0 align 2 {
  tail call void @_ZN5clang7VarDeclC2ENS_4Decl4KindERNS_10ASTContextEPNS_11DeclContextENS_14SourceLocationES7_PKNS_14IdentifierInfoENS_8QualTypeEPNS_14TypeSourceInfoENS_12StorageClassE(ptr noundef nonnull align 8 dereferenceable(100) %0, i32 noundef %1, ptr noundef nonnull align 8 dereferenceable(23096) %2, ptr noundef null, i32 0, i32 0, ptr noundef null, i64 0, ptr noundef null, i32 noundef 0) #21
  %4 = getelementptr inbounds nuw i8, ptr %0, i64 104
  store ptr null, ptr %4, align 8
  store ptr getelementptr inbounds nuw inrange(-16, 104) (i8, ptr @_ZTVN5clang29VarTemplateSpecializationDeclE, i64 16), ptr %0, align 8
  %5 = getelementptr inbounds nuw i8, ptr %0, i64 112
  %6 = getelementptr inbounds nuw i8, ptr %0, i64 136
  store i32 0, ptr %6, align 8
  %7 = getelementptr inbounds nuw i8, ptr %0, i64 140
  tail call void @llvm.memset.p0.i64(ptr noundef nonnull align 8 dereferenceable(16) %5, i8 0, i64 16, i1 false)
  %8 = load i8, ptr %7, align 4
  %9 = and i8 %8, -16
  store i8 %9, ptr %7, align 4
  ret void
}